target datalayout = "e-m:e-p270:32:32-p271:32:32-p272:64:64-i64:64-i128:128-f80:128-n8:16:32:64-S128"
target triple = "x86_64-pc-linux-gnu"

%union.PJ_COORD = type { [4 x double] }
%struct.PJ_LPZ = type { double, double, double }
%struct.PJ_XYZ = type { double, double, double }
%struct.PJconsts = type { ptr, ptr, ptr, ptr, ptr, ptr, ptr, ptr, ptr, ptr, ptr, ptr, i32, ptr, ptr, ptr, ptr, ptr, ptr, ptr, ptr, double, double, double, double, double, double, double, double, double, double, double, double, double, double, double, double, double, double, double, double, double, double, i32, i32, i32, i32, i32, i32, i32, i32, i32, i32, i32, ptr, ptr, ptr, ptr, ptr, ptr, double, double, double, double, double, double, double, double, double, double, double, i32, [7 x double], i32, ptr, ptr, double, double, i32, [4 x i8], %"class.std::shared_ptr", i8, double, i8, %"class.std::__cxx11::basic_string", %"class.std::__cxx11::basic_string", %"class.std::__cxx11::basic_string", i8, %"class.std::vector", i32, %"class.std::vector.3", i32, i8, i8, i8, ptr }
%"class.std::shared_ptr" = type { %"class.std::__shared_ptr" }
%"class.std::__shared_ptr" = type { ptr, %"class.std::__shared_count" }
%"class.std::__shared_count" = type { ptr }
%"class.std::__cxx11::basic_string" = type { %"struct.std::__cxx11::basic_string<char>::_Alloc_hider", i64, %union.anon }
%"struct.std::__cxx11::basic_string<char>::_Alloc_hider" = type { ptr }
%union.anon = type { i64, [8 x i8] }
%"class.std::vector" = type { %"struct.std::_Vector_base" }
%"struct.std::_Vector_base" = type { %"struct.std::_Vector_base<osgeo::proj::operation::GridDescription, std::allocator<osgeo::proj::operation::GridDescription>>::_Vector_impl" }
%"struct.std::_Vector_base<osgeo::proj::operation::GridDescription, std::allocator<osgeo::proj::operation::GridDescription>>::_Vector_impl" = type { %"struct.std::_Vector_base<osgeo::proj::operation::GridDescription, std::allocator<osgeo::proj::operation::GridDescription>>::_Vector_impl_data" }
%"struct.std::_Vector_base<osgeo::proj::operation::GridDescription, std::allocator<osgeo::proj::operation::GridDescription>>::_Vector_impl_data" = type { ptr, ptr, ptr }
%"class.std::vector.3" = type { %"struct.std::_Vector_base.4" }
%"struct.std::_Vector_base.4" = type { %"struct.std::_Vector_base<PJCoordOperation, std::allocator<PJCoordOperation>>::_Vector_impl" }
%"struct.std::_Vector_base<PJCoordOperation, std::allocator<PJCoordOperation>>::_Vector_impl" = type { %"struct.std::_Vector_base<PJCoordOperation, std::allocator<PJCoordOperation>>::_Vector_impl_data" }
%"struct.std::_Vector_base<PJCoordOperation, std::allocator<PJCoordOperation>>::_Vector_impl_data" = type { ptr, ptr, ptr }

; Function Attrs: mustprogress uwtable
define internal void @_ZL11inv_prepareP8PJconstsR8PJ_COORD(ptr noundef %0, ptr noundef nonnull align 8 dereferenceable(32) %1) #0 {
  %3 = alloca ptr, align 8
  %4 = alloca ptr, align 8
  %5 = alloca %union.PJ_COORD, align 8
  %6 = alloca %union.PJ_COORD, align 8
  %7 = alloca %union.PJ_COORD, align 8
  %8 = alloca %union.PJ_COORD, align 8
  %9 = alloca %union.PJ_COORD, align 8
  store ptr %0, ptr %3, align 8, !tbaa !3
  store ptr %1, ptr %4, align 8, !tbaa !72
  %10 = load ptr, ptr %4, align 8, !tbaa !72
  %11 = getelementptr inbounds [4 x double], ptr %10, i64 0, i64 0
  %12 = load double, ptr %11, align 8, !tbaa !65
  %13 = fcmp oeq double %12, 0x7FF0000000000000
  br i1 %13, label %24, label %14

14:                                               ; preds = %2
  %15 = load ptr, ptr %4, align 8, !tbaa !72
  %16 = getelementptr inbounds [4 x double], ptr %15, i64 0, i64 1
  %17 = load double, ptr %16, align 8, !tbaa !65
  %18 = fcmp oeq double %17, 0x7FF0000000000000
  br i1 %18, label %24, label %19

19:                                               ; preds = %14
  %20 = load ptr, ptr %4, align 8, !tbaa !72
  %21 = getelementptr inbounds [4 x double], ptr %20, i64 0, i64 2
  %22 = load double, ptr %21, align 8, !tbaa !65
  %23 = fcmp oeq double %22, 0x7FF0000000000000
  br i1 %23, label %24, label %28

24:                                               ; preds = %19, %14, %2
  %25 = load ptr, ptr %3, align 8, !tbaa !3
  %26 = call i32 @proj_errno_set(ptr noundef %25, i32 noundef 2050)
  call void @llvm.lifetime.start.p0(i64 32, ptr %5) #7
  call void @_Z16proj_coord_errorv(ptr dead_on_unwind writable sret(%union.PJ_COORD) align 8 %5)
  %27 = load ptr, ptr %4, align 8, !tbaa !72
  call void @llvm.memcpy.p0.p0.i64(ptr align 8 %27, ptr align 8 %5, i64 32, i1 false), !tbaa.struct !71
  call void @llvm.lifetime.end.p0(i64 32, ptr %5) #7
  br label %176

28:                                               ; preds = %19
  %29 = load ptr, ptr %4, align 8, !tbaa !72
  %30 = getelementptr inbounds [4 x double], ptr %29, i64 0, i64 2
  %31 = load double, ptr %30, align 8, !tbaa !65
  %32 = fcmp oeq double 0x7FF0000000000000, %31
  br i1 %32, label %33, label %41

33:                                               ; preds = %28
  %34 = load ptr, ptr %3, align 8, !tbaa !3
  %35 = getelementptr inbounds nuw %struct.PJconsts, ptr %34, i32 0, i32 57
  %36 = load ptr, ptr %35, align 8, !tbaa !74
  %37 = icmp ne ptr %36, null
  br i1 %37, label %38, label %41

38:                                               ; preds = %33
  %39 = load ptr, ptr %4, align 8, !tbaa !72
  %40 = getelementptr inbounds [4 x double], ptr %39, i64 0, i64 2
  store double 0.000000e+00, ptr %40, align 8, !tbaa !65
  br label %41

41:                                               ; preds = %38, %33, %28
  %42 = load ptr, ptr %4, align 8, !tbaa !72
  %43 = getelementptr inbounds [4 x double], ptr %42, i64 0, i64 3
  %44 = load double, ptr %43, align 8, !tbaa !65
  %45 = fcmp oeq double 0x7FF0000000000000, %44
  br i1 %45, label %46, label %54

46:                                               ; preds = %41
  %47 = load ptr, ptr %3, align 8, !tbaa !3
  %48 = getelementptr inbounds nuw %struct.PJconsts, ptr %47, i32 0, i32 57
  %49 = load ptr, ptr %48, align 8, !tbaa !74
  %50 = icmp ne ptr %49, null
  br i1 %50, label %51, label %54

51:                                               ; preds = %46
  %52 = load ptr, ptr %4, align 8, !tbaa !72
  %53 = getelementptr inbounds [4 x double], ptr %52, i64 0, i64 3
  store double 0.000000e+00, ptr %53, align 8, !tbaa !65
  br label %54

54:                                               ; preds = %51, %46, %41
  %55 = load ptr, ptr %3, align 8, !tbaa !3
  %56 = getelementptr inbounds nuw %struct.PJconsts, ptr %55, i32 0, i32 54
  %57 = load ptr, ptr %56, align 8, !tbaa !75
  %58 = icmp ne ptr %57, null
  br i1 %58, label %59, label %65

59:                                               ; preds = %54
  call void @llvm.lifetime.start.p0(i64 32, ptr %6) #7
  %60 = load ptr, ptr %3, align 8, !tbaa !3
  %61 = getelementptr inbounds nuw %struct.PJconsts, ptr %60, i32 0, i32 54
  %62 = load ptr, ptr %61, align 8, !tbaa !75
  %63 = load ptr, ptr %4, align 8, !tbaa !72
  call void @llvm.memcpy.p0.p0.i64(ptr align 8 %7, ptr align 8 %63, i64 32, i1 false), !tbaa.struct !71
  call void @proj_trans(ptr dead_on_unwind writable sret(%union.PJ_COORD) align 8 %6, ptr noundef %62, i32 noundef -1, ptr noundef byval(%union.PJ_COORD) align 8 %7)
  %64 = load ptr, ptr %4, align 8, !tbaa !72
  call void @llvm.memcpy.p0.p0.i64(ptr align 8 %64, ptr align 8 %6, i64 32, i1 false), !tbaa.struct !71
  call void @llvm.lifetime.end.p0(i64 32, ptr %6) #7
  br label %65

65:                                               ; preds = %59, %54
  %66 = load ptr, ptr %3, align 8, !tbaa !3
  %67 = getelementptr inbounds nuw %struct.PJconsts, ptr %66, i32 0, i32 53
  %68 = load i32, ptr %67, align 8, !tbaa !76
  switch i32 %68, label %176 [
    i32 0, label %176
    i32 5, label %176
    i32 3, label %69
    i32 2, label %102
    i32 1, label %102
    i32 4, label %162
  ]

69:                                               ; preds = %65
  %70 = load ptr, ptr %3, align 8, !tbaa !3
  %71 = getelementptr inbounds nuw %struct.PJconsts, ptr %70, i32 0, i32 67
  %72 = load double, ptr %71, align 8, !tbaa !77
  %73 = load ptr, ptr %4, align 8, !tbaa !72
  %74 = getelementptr inbounds nuw %struct.PJ_XYZ, ptr %73, i32 0, i32 0
  %75 = load double, ptr %74, align 8, !tbaa !65
  %76 = fmul double %75, %72
  store double %76, ptr %74, align 8, !tbaa !65
  %77 = load ptr, ptr %3, align 8, !tbaa !3
  %78 = getelementptr inbounds nuw %struct.PJconsts, ptr %77, i32 0, i32 67
  %79 = load double, ptr %78, align 8, !tbaa !77
  %80 = load ptr, ptr %4, align 8, !tbaa !72
  %81 = getelementptr inbounds nuw %struct.PJ_XYZ, ptr %80, i32 0, i32 1
  %82 = load double, ptr %81, align 8, !tbaa !65
  %83 = fmul double %82, %79
  store double %83, ptr %81, align 8, !tbaa !65
  %84 = load ptr, ptr %3, align 8, !tbaa !3
  %85 = getelementptr inbounds nuw %struct.PJconsts, ptr %84, i32 0, i32 67
  %86 = load double, ptr %85, align 8, !tbaa !77
  %87 = load ptr, ptr %4, align 8, !tbaa !72
  %88 = getelementptr inbounds nuw %struct.PJ_XYZ, ptr %87, i32 0, i32 2
  %89 = load double, ptr %88, align 8, !tbaa !65
  %90 = fmul double %89, %86
  store double %90, ptr %88, align 8, !tbaa !65
  %91 = load ptr, ptr %3, align 8, !tbaa !3
  %92 = getelementptr inbounds nuw %struct.PJconsts, ptr %91, i32 0, i32 46
  %93 = load i32, ptr %92, align 4, !tbaa !78
  %94 = icmp ne i32 %93, 0
  br i1 %94, label %95, label %101

95:                                               ; preds = %69
  call void @llvm.lifetime.start.p0(i64 32, ptr %8) #7
  %96 = load ptr, ptr %3, align 8, !tbaa !3
  %97 = getelementptr inbounds nuw %struct.PJconsts, ptr %96, i32 0, i32 55
  %98 = load ptr, ptr %97, align 8, !tbaa !79
  %99 = load ptr, ptr %4, align 8, !tbaa !72
  call void @llvm.memcpy.p0.p0.i64(ptr align 8 %9, ptr align 8 %99, i64 32, i1 false), !tbaa.struct !71
  call void @proj_trans(ptr dead_on_unwind writable sret(%union.PJ_COORD) align 8 %8, ptr noundef %98, i32 noundef -1, ptr noundef byval(%union.PJ_COORD) align 8 %9)
  %100 = load ptr, ptr %4, align 8, !tbaa !72
  call void @llvm.memcpy.p0.p0.i64(ptr align 8 %100, ptr align 8 %8, i64 32, i1 false), !tbaa.struct !71
  call void @llvm.lifetime.end.p0(i64 32, ptr %8) #7
  br label %101

101:                                              ; preds = %95, %69
  br label %176

102:                                              ; preds = %65, %65
  %103 = load ptr, ptr %3, align 8, !tbaa !3
  %104 = getelementptr inbounds nuw %struct.PJconsts, ptr %103, i32 0, i32 67
  %105 = load double, ptr %104, align 8, !tbaa !77
  %106 = load ptr, ptr %4, align 8, !tbaa !72
  %107 = getelementptr inbounds nuw %struct.PJ_XYZ, ptr %106, i32 0, i32 0
  %108 = load double, ptr %107, align 8, !tbaa !65
  %109 = load ptr, ptr %3, align 8, !tbaa !3
  %110 = getelementptr inbounds nuw %struct.PJconsts, ptr %109, i32 0, i32 62
  %111 = load double, ptr %110, align 8, !tbaa !80
  %112 = fneg double %111
  %113 = call double @llvm.fmuladd.f64(double %105, double %108, double %112)
  %114 = load ptr, ptr %4, align 8, !tbaa !72
  %115 = getelementptr inbounds nuw %struct.PJ_XYZ, ptr %114, i32 0, i32 0
  store double %113, ptr %115, align 8, !tbaa !65
  %116 = load ptr, ptr %3, align 8, !tbaa !3
  %117 = getelementptr inbounds nuw %struct.PJconsts, ptr %116, i32 0, i32 67
  %118 = load double, ptr %117, align 8, !tbaa !77
  %119 = load ptr, ptr %4, align 8, !tbaa !72
  %120 = getelementptr inbounds nuw %struct.PJ_XYZ, ptr %119, i32 0, i32 1
  %121 = load double, ptr %120, align 8, !tbaa !65
  %122 = load ptr, ptr %3, align 8, !tbaa !3
  %123 = getelementptr inbounds nuw %struct.PJconsts, ptr %122, i32 0, i32 63
  %124 = load double, ptr %123, align 8, !tbaa !81
  %125 = fneg double %124
  %126 = call double @llvm.fmuladd.f64(double %118, double %121, double %125)
  %127 = load ptr, ptr %4, align 8, !tbaa !72
  %128 = getelementptr inbounds nuw %struct.PJ_XYZ, ptr %127, i32 0, i32 1
  store double %126, ptr %128, align 8, !tbaa !65
  %129 = load ptr, ptr %3, align 8, !tbaa !3
  %130 = getelementptr inbounds nuw %struct.PJconsts, ptr %129, i32 0, i32 69
  %131 = load double, ptr %130, align 8, !tbaa !82
  %132 = load ptr, ptr %4, align 8, !tbaa !72
  %133 = getelementptr inbounds nuw %struct.PJ_XYZ, ptr %132, i32 0, i32 2
  %134 = load double, ptr %133, align 8, !tbaa !65
  %135 = load ptr, ptr %3, align 8, !tbaa !3
  %136 = getelementptr inbounds nuw %struct.PJconsts, ptr %135, i32 0, i32 64
  %137 = load double, ptr %136, align 8, !tbaa !83
  %138 = fneg double %137
  %139 = call double @llvm.fmuladd.f64(double %131, double %134, double %138)
  %140 = load ptr, ptr %4, align 8, !tbaa !72
  %141 = getelementptr inbounds nuw %struct.PJ_XYZ, ptr %140, i32 0, i32 2
  store double %139, ptr %141, align 8, !tbaa !65
  %142 = load ptr, ptr %3, align 8, !tbaa !3
  %143 = getelementptr inbounds nuw %struct.PJconsts, ptr %142, i32 0, i32 53
  %144 = load i32, ptr %143, align 8, !tbaa !76
  %145 = icmp eq i32 %144, 2
  br i1 %145, label %146, label %147

146:                                              ; preds = %102
  br label %176

147:                                              ; preds = %102
  %148 = load ptr, ptr %3, align 8, !tbaa !3
  %149 = getelementptr inbounds nuw %struct.PJconsts, ptr %148, i32 0, i32 23
  %150 = load double, ptr %149, align 8, !tbaa !84
  %151 = load ptr, ptr %4, align 8, !tbaa !72
  %152 = getelementptr inbounds nuw %struct.PJ_XYZ, ptr %151, i32 0, i32 0
  %153 = load double, ptr %152, align 8, !tbaa !65
  %154 = fmul double %153, %150
  store double %154, ptr %152, align 8, !tbaa !65
  %155 = load ptr, ptr %3, align 8, !tbaa !3
  %156 = getelementptr inbounds nuw %struct.PJconsts, ptr %155, i32 0, i32 23
  %157 = load double, ptr %156, align 8, !tbaa !84
  %158 = load ptr, ptr %4, align 8, !tbaa !72
  %159 = getelementptr inbounds nuw %struct.PJ_XYZ, ptr %158, i32 0, i32 1
  %160 = load double, ptr %159, align 8, !tbaa !65
  %161 = fmul double %160, %157
  store double %161, ptr %159, align 8, !tbaa !65
  br label %176

162:                                              ; preds = %65
  %163 = load ptr, ptr %3, align 8, !tbaa !3
  %164 = getelementptr inbounds nuw %struct.PJconsts, ptr %163, i32 0, i32 69
  %165 = load double, ptr %164, align 8, !tbaa !82
  %166 = load ptr, ptr %4, align 8, !tbaa !72
  %167 = getelementptr inbounds nuw %struct.PJ_LPZ, ptr %166, i32 0, i32 2
  %168 = load double, ptr %167, align 8, !tbaa !65
  %169 = load ptr, ptr %3, align 8, !tbaa !3
  %170 = getelementptr inbounds nuw %struct.PJconsts, ptr %169, i32 0, i32 64
  %171 = load double, ptr %170, align 8, !tbaa !83
  %172 = fneg double %171
  %173 = call double @llvm.fmuladd.f64(double %165, double %168, double %172)
  %174 = load ptr, ptr %4, align 8, !tbaa !72
  %175 = getelementptr inbounds nuw %struct.PJ_LPZ, ptr %174, i32 0, i32 2
  store double %173, ptr %175, align 8, !tbaa !65
  br label %176

176:                                              ; preds = %24, %146, %65, %162, %147, %101, %65, %65
  ret void
}