; Function Attrs: mustprogress uwtable
define internal fastcc void @_ZL11inv_prepareP8PJconstsR8PJ_COORD(ptr noundef %0, ptr noundef nonnull align 8 captures(none) dereferenceable(32) %1) unnamed_addr #0 {
  %3 = alloca %union.PJ_COORD, align 8
  %4 = alloca %union.PJ_COORD, align 8
  %5 = alloca %union.PJ_COORD, align 8
  %6 = load double, ptr %1, align 8, !tbaa !62
  %7 = fcmp oeq double %6, 0x7FF0000000000000
  br i1 %7, label %16, label %8

8:                                                ; preds = %2
  %9 = getelementptr inbounds nuw i8, ptr %1, i64 8
  %10 = load double, ptr %9, align 8, !tbaa !62
  %11 = fcmp oeq double %10, 0x7FF0000000000000
  br i1 %11, label %16, label %12

12:                                               ; preds = %8
  %13 = getelementptr inbounds nuw i8, ptr %1, i64 16
  %14 = load double, ptr %13, align 8, !tbaa !62
  %15 = fcmp oeq double %14, 0x7FF0000000000000
  br i1 %15, label %16, label %18

16:                                               ; preds = %12, %8, %2
  %17 = tail call i32 @proj_errno_set(ptr noundef %0, i32 noundef 2050)
  call void @llvm.lifetime.start.p0(i64 32, ptr nonnull %3) #6
  call void @_Z16proj_coord_errorv(ptr dead_on_unwind nonnull writable sret(%union.PJ_COORD) align 8 %3)
  call void @llvm.memcpy.p0.p0.i64(ptr noundef nonnull align 8 dereferenceable(32) %1, ptr noundef nonnull align 8 dereferenceable(32) %3, i64 32, i1 false), !tbaa.struct !71
  call void @llvm.lifetime.end.p0(i64 32, ptr nonnull %3) #6
  br label %86

18:                                               ; preds = %12
  %19 = getelementptr inbounds nuw i8, ptr %1, i64 24
  %20 = load double, ptr %19, align 8, !tbaa !62
  %21 = fcmp oeq double %20, 0x7FF0000000000000
  br i1 %21, label %22, label %26

22:                                               ; preds = %18
  %23 = getelementptr inbounds nuw i8, ptr %0, i64 416
  %24 = load ptr, ptr %23, align 8, !tbaa !72
  %.not = icmp eq ptr %24, null
  br i1 %.not, label %26, label %25

25:                                               ; preds = %22
  store double 0.000000e+00, ptr %19, align 8, !tbaa !62
  br label %26

26:                                               ; preds = %25, %22, %18
  %27 = getelementptr inbounds nuw i8, ptr %0, i64 392
  %28 = load ptr, ptr %27, align 8, !tbaa !73
  %.not47 = icmp eq ptr %28, null
  br i1 %.not47, label %30, label %29

29:                                               ; preds = %26
  call void @llvm.lifetime.start.p0(i64 32, ptr nonnull %4) #6
  call void @proj_trans(ptr dead_on_unwind nonnull writable sret(%union.PJ_COORD) align 8 %4, ptr noundef nonnull %28, i32 noundef -1, ptr noundef nonnull byval(%union.PJ_COORD) align 8 %1)
  call void @llvm.memcpy.p0.p0.i64(ptr noundef nonnull align 8 dereferenceable(32) %1, ptr noundef nonnull align 8 dereferenceable(32) %4, i64 32, i1 false), !tbaa.struct !71
  call void @llvm.lifetime.end.p0(i64 32, ptr nonnull %4) #6
  br label %30

30:                                               ; preds = %29, %26
  %31 = getelementptr inbounds nuw i8, ptr %0, i64 384
  %32 = load i32, ptr %31, align 8, !tbaa !74
  switch i32 %32, label %86 [
    i32 4, label %78
    i32 1, label %49
    i32 3, label %33
    i32 2, label %49
  ]

33:                                               ; preds = %30
  %34 = getelementptr inbounds nuw i8, ptr %0, i64 496
  %35 = load double, ptr %34, align 8, !tbaa !75
  %36 = load double, ptr %1, align 8, !tbaa !62
  %37 = fmul double %35, %36
  store double %37, ptr %1, align 8, !tbaa !62
  %38 = load double, ptr %34, align 8, !tbaa !75
  %39 = load double, ptr %9, align 8, !tbaa !62
  %40 = fmul double %38, %39
  store double %40, ptr %9, align 8, !tbaa !62
  %41 = load double, ptr %34, align 8, !tbaa !75
  %42 = load double, ptr %13, align 8, !tbaa !62
  %43 = fmul double %41, %42
  store double %43, ptr %13, align 8, !tbaa !62
  %44 = getelementptr inbounds nuw i8, ptr %0, i64 356
  %45 = load i32, ptr %44, align 4, !tbaa !76
  %.not48 = icmp eq i32 %45, 0
  br i1 %.not48, label %86, label %46

46:                                               ; preds = %33
  call void @llvm.lifetime.start.p0(i64 32, ptr nonnull %5) #6
  %47 = getelementptr inbounds nuw i8, ptr %0, i64 400
  %48 = load ptr, ptr %47, align 8, !tbaa !77
  call void @proj_trans(ptr dead_on_unwind nonnull writable sret(%union.PJ_COORD) align 8 %5, ptr noundef %48, i32 noundef -1, ptr noundef nonnull byval(%union.PJ_COORD) align 8 %1)
  call void @llvm.memcpy.p0.p0.i64(ptr noundef nonnull align 8 dereferenceable(32) %1, ptr noundef nonnull align 8 dereferenceable(32) %5, i64 32, i1 false), !tbaa.struct !71
  call void @llvm.lifetime.end.p0(i64 32, ptr nonnull %5) #6
  br label %86

49:                                               ; preds = %30, %30
  %50 = getelementptr inbounds nuw i8, ptr %0, i64 496
  %51 = load double, ptr %50, align 8, !tbaa !75
  %52 = load double, ptr %1, align 8, !tbaa !62
  %53 = getelementptr inbounds nuw i8, ptr %0, i64 456
  %54 = load double, ptr %53, align 8, !tbaa !78
  %55 = fneg double %54
  %56 = call double @llvm.fmuladd.f64(double %51, double %52, double %55)
  store double %56, ptr %1, align 8, !tbaa !62
  %57 = load double, ptr %50, align 8, !tbaa !75
  %58 = load double, ptr %9, align 8, !tbaa !62
  %59 = getelementptr inbounds nuw i8, ptr %0, i64 464
  %60 = load double, ptr %59, align 8, !tbaa !79
  %61 = fneg double %60
  %62 = call double @llvm.fmuladd.f64(double %57, double %58, double %61)
  store double %62, ptr %9, align 8, !tbaa !62
  %63 = getelementptr inbounds nuw i8, ptr %0, i64 512
  %64 = load double, ptr %63, align 8, !tbaa !80
  %65 = load double, ptr %13, align 8, !tbaa !62
  %66 = getelementptr inbounds nuw i8, ptr %0, i64 472
  %67 = load double, ptr %66, align 8, !tbaa !81
  %68 = fneg double %67
  %69 = call double @llvm.fmuladd.f64(double %64, double %65, double %68)
  store double %69, ptr %13, align 8, !tbaa !62
  %70 = load i32, ptr %31, align 8, !tbaa !74
  %71 = icmp eq i32 %70, 2
  br i1 %71, label %86, label %72

72:                                               ; preds = %49
  %73 = getelementptr inbounds nuw i8, ptr %0, i64 184
  %74 = load double, ptr %73, align 8, !tbaa !82
  %75 = fmul double %56, %74
  store double %75, ptr %1, align 8, !tbaa !62
  %76 = load double, ptr %73, align 8, !tbaa !82
  %77 = fmul double %62, %76
  store double %77, ptr %9, align 8, !tbaa !62
  br label %86

78:                                               ; preds = %30
  %79 = getelementptr inbounds nuw i8, ptr %0, i64 512
  %80 = load double, ptr %79, align 8, !tbaa !80
  %81 = load double, ptr %13, align 8, !tbaa !62
  %82 = getelementptr inbounds nuw i8, ptr %0, i64 472
  %83 = load double, ptr %82, align 8, !tbaa !81
  %84 = fneg double %83
  %85 = call double @llvm.fmuladd.f64(double %80, double %81, double %84)
  store double %85, ptr %13, align 8, !tbaa !62
  br label %86

86:                                               ; preds = %49, %33, %46, %78, %72, %30, %16
  ret void
}